; Function Attrs: nounwind uwtable
define internal fastcc void @handle_edm(ptr noundef %0) unnamed_addr #1 {
  %2 = getelementptr inbounds nuw i8, ptr %0, i64 5312
  %3 = load i32, ptr %2, align 8, !tbaa !44
  %4 = sext i32 %3 to i64
  %5 = getelementptr inbounds nuw i8, ptr %0, i64 16
  %6 = load i32, ptr %5, align 8, !tbaa !53
  %.not = icmp eq i32 %6, 0
  br i1 %.not, label %10, label %.thread

.thread:                                          ; preds = %1
  %.idx11 = mul nsw i64 %4, 2642
  %7 = getelementptr i8, ptr %0, i64 2668
  %8 = getelementptr i8, ptr %7, i64 %.idx11
  store i16 0, ptr %8, align 2, !tbaa !51
  %9 = getelementptr inbounds nuw i8, ptr %0, i64 5319
  store i8 8, ptr %9, align 1, !tbaa !30
  br label %16

10:                                               ; preds = %1
  %11 = tail call fastcc i32 @capture_screen(ptr noundef nonnull %0)
  %.pre = load i32, ptr %5, align 8, !tbaa !53
  %12 = icmp eq i32 %.pre, 0
  %.idx = mul nsw i64 %4, 2642
  %13 = getelementptr i8, ptr %0, i64 2668
  %14 = getelementptr i8, ptr %13, i64 %.idx
  store i16 0, ptr %14, align 2, !tbaa !51
  %15 = getelementptr inbounds nuw i8, ptr %0, i64 5319
  store i8 8, ptr %15, align 1, !tbaa !30
  br i1 %12, label %18, label %16

16:                                               ; preds = %.thread, %10
  %17 = tail call fastcc i32 @capture_screen(ptr noundef nonnull %0)
  br label %18

18:                                               ; preds = %16, %10
  ret void
}